target datalayout = "e-m:e-p270:32:32-p271:32:32-p272:64:64-i64:64-i128:128-f80:128-n8:16:32:64-S128"
target triple = "x86_64-pc-linux-gnu"

%"class.std::vector" = type { %"struct.std::_Vector_base" }
%"struct.std::_Vector_base" = type { %"struct.std::_Vector_base<std::__cxx11::basic_string<char>, std::allocator<std::__cxx11::basic_string<char>>>::_Vector_impl" }
%"struct.std::_Vector_base<std::__cxx11::basic_string<char>, std::allocator<std::__cxx11::basic_string<char>>>::_Vector_impl" = type { %"struct.std::_Vector_base<std::__cxx11::basic_string<char>, std::allocator<std::__cxx11::basic_string<char>>>::_Vector_impl_data" }
%"struct.std::_Vector_base<std::__cxx11::basic_string<char>, std::allocator<std::__cxx11::basic_string<char>>>::_Vector_impl_data" = type { ptr, ptr, ptr }
%"struct.std::_Rb_tree_key_compare" = type { %"struct.std::less" }
%"struct.std::less" = type { i8 }
%"struct.std::_Rb_tree_header" = type { %"struct.std::_Rb_tree_node_base", i64 }
%"struct.std::_Rb_tree_node_base" = type { i32, ptr, ptr, ptr }
%"class.std::__cxx11::basic_string" = type { %"struct.std::__cxx11::basic_string<char>::_Alloc_hider", i64, %union.anon }
%"struct.std::__cxx11::basic_string<char>::_Alloc_hider" = type { ptr }
%union.anon = type { i64, [8 x i8] }
%"class.casadi::Function" = type { %"class.casadi::SharedObject" }
%"class.casadi::SharedObject" = type { ptr }
%"class.std::vector.6" = type { %"struct.std::_Vector_base.7" }
%"struct.std::_Vector_base.7" = type { %"struct.std::_Vector_base<double, std::allocator<double>>::_Vector_impl" }
%"struct.std::_Vector_base<double, std::allocator<double>>::_Vector_impl" = type { %"struct.std::_Vector_base<double, std::allocator<double>>::_Vector_impl_data" }
%"struct.std::_Vector_base<double, std::allocator<double>>::_Vector_impl_data" = type { ptr, ptr, ptr }
%"class.casadi::Sparsity" = type { %"class.casadi::SharedObject" }
%"class.std::map.12" = type { %"class.std::_Rb_tree.13" }
%"class.std::_Rb_tree.13" = type { %"struct.std::_Rb_tree<std::__cxx11::basic_string<char>, std::pair<const std::__cxx11::basic_string<char>, casadi::GenericType>, std::_Select1st<std::pair<const std::__cxx11::basic_string<char>, casadi::GenericType>>, std::less<std::__cxx11::basic_string<char>>>::_Rb_tree_impl" }
%"struct.std::_Rb_tree<std::__cxx11::basic_string<char>, std::pair<const std::__cxx11::basic_string<char>, casadi::GenericType>, std::_Select1st<std::pair<const std::__cxx11::basic_string<char>, casadi::GenericType>>, std::less<std::__cxx11::basic_string<char>>>::_Rb_tree_impl" = type { %"struct.std::_Rb_tree_key_compare", %"struct.std::_Rb_tree_header" }
%"class.casadi::Integrator" = type <{ %"class.casadi::OracleFunction", %"class.casadi::PluginInterface", %"class.casadi::Sparsity", %"class.casadi::Sparsity", double, %"class.std::vector.6", i64, i64, %"class.casadi::Function", i64, i64, i64, i64, i64, i64, i64, i64, i64, i64, i64, i64, i64, i64, i64, i64, i64, i64, i64, i64, %"class.std::vector.6", %"class.std::vector.6", %"class.std::map.12", %"class.std::map.12", i8, [7 x i8] }>
%"class.casadi::OracleFunction" = type { %"class.casadi::FunctionInternal", %"class.casadi::Function", %"class.std::map.12", %"class.std::map.12", i8, i32, %"class.std::map.45", %"class.std::vector", i64, i64, i64, i64 }
%"class.casadi::FunctionInternal" = type { %"class.casadi::ProtoFunction", i8, i8, i64, i64, %"class.std::vector.30", %"class.std::vector.30", %"class.std::vector.34", %"class.std::vector.34", %"class.std::vector", %"class.std::vector", i8, i8, %"class.std::__cxx11::basic_string", %"class.std::__cxx11::basic_string", %"class.std::__cxx11::basic_string", i8, ptr, ptr, ptr, %"class.std::map.12", i8, %"class.std::map.12", %"class.std::map.39", [2 x %"class.std::vector.34"], %"class.casadi::Function", ptr, %"class.std::__cxx11::basic_string", %"class.casadi::Importer", %"class.std::map.12", double, i8, i8, i8, i8, i8, i8, i8, i8, double, double, i64, i8, %"class.std::map.12", double, %"class.std::__cxx11::basic_string", i8, i8, i64, i8, i8, i8, %"class.std::__cxx11::basic_string", %"class.std::__cxx11::basic_string", %"class.std::map.12", %"class.std::map.12", %"class.std::map.12", %"class.std::map.12", %"class.casadi::Function", i64, i64, i64, i64, i64, i64, i64, i64, i64 }
%"class.casadi::ProtoFunction" = type { %"class.casadi::SharedObjectInternal", %"class.std::__cxx11::basic_string", i8, i8, i8, i8, i8, %"class.std::vector.22", %"class.std::stack" }
%"class.casadi::SharedObjectInternal" = type { ptr, i64, ptr }
%"class.std::vector.22" = type { %"struct.std::_Vector_base.23" }
%"struct.std::_Vector_base.23" = type { %"struct.std::_Vector_base<void *, std::allocator<void *>>::_Vector_impl" }
%"struct.std::_Vector_base<void *, std::allocator<void *>>::_Vector_impl" = type { %"struct.std::_Vector_base<void *, std::allocator<void *>>::_Vector_impl_data" }
%"struct.std::_Vector_base<void *, std::allocator<void *>>::_Vector_impl_data" = type { ptr, ptr, ptr }
%"class.std::stack" = type { %"class.std::deque" }
%"class.std::deque" = type { %"class.std::_Deque_base" }
%"class.std::_Deque_base" = type { %"struct.std::_Deque_base<int, std::allocator<int>>::_Deque_impl" }
%"struct.std::_Deque_base<int, std::allocator<int>>::_Deque_impl" = type { %"struct.std::_Deque_base<int, std::allocator<int>>::_Deque_impl_data" }
%"struct.std::_Deque_base<int, std::allocator<int>>::_Deque_impl_data" = type { ptr, i64, %"struct.std::_Deque_iterator", %"struct.std::_Deque_iterator" }
%"struct.std::_Deque_iterator" = type { ptr, ptr, ptr, ptr }
%"class.std::vector.30" = type { %"struct.std::_Bvector_base" }
%"struct.std::_Bvector_base" = type { %"struct.std::_Bvector_base<std::allocator<bool>>::_Bvector_impl" }
%"struct.std::_Bvector_base<std::allocator<bool>>::_Bvector_impl" = type { %"struct.std::_Bvector_base<std::allocator<bool>>::_Bvector_impl_data" }
%"struct.std::_Bvector_base<std::allocator<bool>>::_Bvector_impl_data" = type { %"struct.std::_Bit_iterator", %"struct.std::_Bit_iterator", ptr }
%"struct.std::_Bit_iterator" = type { %"struct.std::_Bit_iterator_base.base", [4 x i8] }
%"struct.std::_Bit_iterator_base.base" = type <{ ptr, i32 }>
%"class.std::vector.34" = type { %"struct.std::_Vector_base.35" }
%"struct.std::_Vector_base.35" = type { %"struct.std::_Vector_base<casadi::Sparsity, std::allocator<casadi::Sparsity>>::_Vector_impl" }
%"struct.std::_Vector_base<casadi::Sparsity, std::allocator<casadi::Sparsity>>::_Vector_impl" = type { %"struct.std::_Vector_base<casadi::Sparsity, std::allocator<casadi::Sparsity>>::_Vector_impl_data" }
%"struct.std::_Vector_base<casadi::Sparsity, std::allocator<casadi::Sparsity>>::_Vector_impl_data" = type { ptr, ptr, ptr }
%"class.std::map.39" = type { %"class.std::_Rb_tree.40" }
%"class.std::_Rb_tree.40" = type { %"struct.std::_Rb_tree<std::__cxx11::basic_string<char>, std::pair<const std::__cxx11::basic_string<char>, casadi::WeakRef>, std::_Select1st<std::pair<const std::__cxx11::basic_string<char>, casadi::WeakRef>>, std::less<std::__cxx11::basic_string<char>>>::_Rb_tree_impl" }
%"struct.std::_Rb_tree<std::__cxx11::basic_string<char>, std::pair<const std::__cxx11::basic_string<char>, casadi::WeakRef>, std::_Select1st<std::pair<const std::__cxx11::basic_string<char>, casadi::WeakRef>>, std::less<std::__cxx11::basic_string<char>>>::_Rb_tree_impl" = type { %"struct.std::_Rb_tree_key_compare", %"struct.std::_Rb_tree_header" }
%"class.casadi::Importer" = type { %"class.casadi::SharedObject" }
%"class.std::map.45" = type { %"class.std::_Rb_tree.46" }
%"class.std::_Rb_tree.46" = type { %"struct.std::_Rb_tree<std::__cxx11::basic_string<char>, std::pair<const std::__cxx11::basic_string<char>, casadi::OracleFunction::RegFun>, std::_Select1st<std::pair<const std::__cxx11::basic_string<char>, casadi::OracleFunction::RegFun>>, std::less<std::__cxx11::basic_string<char>>>::_Rb_tree_impl" }
%"struct.std::_Rb_tree<std::__cxx11::basic_string<char>, std::pair<const std::__cxx11::basic_string<char>, casadi::OracleFunction::RegFun>, std::_Select1st<std::pair<const std::__cxx11::basic_string<char>, casadi::OracleFunction::RegFun>>, std::less<std::__cxx11::basic_string<char>>>::_Rb_tree_impl" = type { %"struct.std::_Rb_tree_key_compare", %"struct.std::_Rb_tree_header" }
%"class.casadi::PluginInterface" = type { ptr }
%"struct.casadi::IntegratorMemory" = type { %"struct.casadi::OracleMemory", i64, double, double, double }
%"struct.casadi::OracleMemory" = type { %"struct.casadi::FunctionMemory", ptr, ptr, ptr, ptr, %"class.std::vector.56" }
%"struct.casadi::FunctionMemory" = type { %"struct.casadi::ProtoFunctionMemory" }
%"struct.casadi::ProtoFunctionMemory" = type { %"class.std::map.51", ptr }
%"class.std::map.51" = type { %"class.std::_Rb_tree.52" }
%"class.std::_Rb_tree.52" = type { %"struct.std::_Rb_tree<std::__cxx11::basic_string<char>, std::pair<const std::__cxx11::basic_string<char>, casadi::FStats>, std::_Select1st<std::pair<const std::__cxx11::basic_string<char>, casadi::FStats>>, std::less<std::__cxx11::basic_string<char>>>::_Rb_tree_impl" }
%"struct.std::_Rb_tree<std::__cxx11::basic_string<char>, std::pair<const std::__cxx11::basic_string<char>, casadi::FStats>, std::_Select1st<std::pair<const std::__cxx11::basic_string<char>, casadi::FStats>>, std::less<std::__cxx11::basic_string<char>>>::_Rb_tree_impl" = type { %"struct.std::_Rb_tree_key_compare", %"struct.std::_Rb_tree_header" }
%"class.std::vector.56" = type { %"struct.std::_Vector_base.57" }
%"struct.std::_Vector_base.57" = type { %"struct.std::_Vector_base<casadi::LocalOracleMemory *, std::allocator<casadi::LocalOracleMemory *>>::_Vector_impl" }
%"struct.std::_Vector_base<casadi::LocalOracleMemory *, std::allocator<casadi::LocalOracleMemory *>>::_Vector_impl" = type { %"struct.std::_Vector_base<casadi::LocalOracleMemory *, std::allocator<casadi::LocalOracleMemory *>>::_Vector_impl_data" }
%"struct.std::_Vector_base<casadi::LocalOracleMemory *, std::allocator<casadi::LocalOracleMemory *>>::_Vector_impl_data" = type { ptr, ptr, ptr }
%"class.std::vector.101" = type { %"struct.std::_Vector_base.102" }
%"struct.std::_Vector_base.102" = type { %"struct.std::_Vector_base<long long, std::allocator<long long>>::_Vector_impl" }
%"struct.std::_Vector_base<long long, std::allocator<long long>>::_Vector_impl" = type { %"struct.std::_Vector_base<long long, std::allocator<long long>>::_Vector_impl_data" }
%"struct.std::_Vector_base<long long, std::allocator<long long>>::_Vector_impl_data" = type { ptr, ptr, ptr }
%"class.casadi::FixedStepIntegrator" = type { %"class.casadi::Integrator.base", i64, %"class.std::vector.101", i64, i64, i64, i64 }
%"class.casadi::Integrator.base" = type <{ %"class.casadi::OracleFunction", %"class.casadi::PluginInterface", %"class.casadi::Sparsity", %"class.casadi::Sparsity", double, %"class.std::vector.6", i64, i64, %"class.casadi::Function", i64, i64, i64, i64, i64, i64, i64, i64, i64, i64, i64, i64, i64, i64, i64, i64, i64, i64, i64, i64, %"class.std::vector.6", %"class.std::vector.6", %"class.std::map.12", %"class.std::map.12", i8 }>
%"struct.casadi::FixedStepMemory" = type { %"struct.casadi::IntegratorMemory", ptr, ptr, ptr, ptr, ptr, ptr, ptr, ptr, ptr, ptr, ptr, ptr, ptr, ptr, ptr, ptr, ptr, ptr, ptr, ptr }

; Function Attrs: mustprogress nounwind uwtable
define linkonce_odr hidden void @_ZN6casadi12casadi_clearIdEEvPT_x(ptr noundef %0, i64 noundef %1) #5 comdat {
  %3 = alloca ptr, align 8
  %4 = alloca i64, align 8
  %5 = alloca i64, align 8
  store ptr %0, ptr %3, align 8
  store i64 %1, ptr %4, align 8
  %6 = load ptr, ptr %3, align 8
  %7 = icmp ne ptr %6, null
  br i1 %7, label %8, label %20

8:                                                ; preds = %2
  store i64 0, ptr %5, align 8
  br label %9

9:                                                ; preds = %16, %8
  %10 = load i64, ptr %5, align 8
  %11 = load i64, ptr %4, align 8
  %12 = icmp slt i64 %10, %11
  br i1 %12, label %13, label %19

13:                                               ; preds = %9
  %14 = load ptr, ptr %3, align 8
  %15 = getelementptr inbounds double, ptr %14, i32 1
  store ptr %15, ptr %3, align 8
  store double 0.000000e+00, ptr %14, align 8
  br label %16

16:                                               ; preds = %13
  %17 = load i64, ptr %5, align 8
  %18 = add nsw i64 %17, 1
  store i64 %18, ptr %5, align 8
  br label %9, !llvm.loop !24

19:                                               ; preds = %9
  br label %20

20:                                               ; preds = %19, %2
  ret void
}

; Function Attrs: mustprogress uwtable
define void @_ZNK6casadi19FixedStepIntegrator6resetBEPNS_16IntegratorMemoryE(ptr noundef nonnull align 8 dereferenceable(1976) %0, ptr noundef %1) unnamed_addr #4 align 2 {
  %3 = alloca ptr, align 8
  %4 = alloca ptr, align 8
  %5 = alloca ptr, align 8
  store ptr %0, ptr %3, align 8
  store ptr %1, ptr %4, align 8
  %6 = load ptr, ptr %3, align 8
  %7 = load ptr, ptr %4, align 8
  store ptr %7, ptr %5, align 8
  %8 = load ptr, ptr %5, align 8
  %9 = getelementptr inbounds %"struct.casadi::FixedStepMemory", ptr %8, i32 0, i32 15
  %10 = load ptr, ptr %9, align 8
  %11 = getelementptr inbounds %"class.casadi::Integrator", ptr %6, i32 0, i32 24
  %12 = load i64, ptr %11, align 8
  call void @_ZN6casadi12casadi_clearIdEEvPT_x(ptr noundef %10, i64 noundef %12)
  %13 = load ptr, ptr %5, align 8
  %14 = getelementptr inbounds %"struct.casadi::FixedStepMemory", ptr %13, i32 0, i32 3
  %15 = load ptr, ptr %14, align 8
  %16 = getelementptr inbounds %"class.casadi::Integrator", ptr %6, i32 0, i32 15
  %17 = load i64, ptr %16, align 8
  call void @_ZN6casadi12casadi_clearIdEEvPT_x(ptr noundef %15, i64 noundef %17)
  %18 = load ptr, ptr %5, align 8
  %19 = getelementptr inbounds %"struct.casadi::FixedStepMemory", ptr %18, i32 0, i32 5
  %20 = load ptr, ptr %19, align 8
  %21 = getelementptr inbounds %"class.casadi::Integrator", ptr %6, i32 0, i32 17
  %22 = load i64, ptr %21, align 8
  call void @_ZN6casadi12casadi_clearIdEEvPT_x(ptr noundef %20, i64 noundef %22)
  %23 = load ptr, ptr %5, align 8
  %24 = getelementptr inbounds %"struct.casadi::FixedStepMemory", ptr %23, i32 0, i32 16
  %25 = load ptr, ptr %24, align 8
  %26 = getelementptr inbounds %"class.casadi::Integrator", ptr %6, i32 0, i32 18
  %27 = load i64, ptr %26, align 8
  call void @_ZN6casadi12casadi_clearIdEEvPT_x(ptr noundef %25, i64 noundef %27)
  %28 = load ptr, ptr %5, align 8
  %29 = getelementptr inbounds %"struct.casadi::FixedStepMemory", ptr %28, i32 0, i32 14
  %30 = load ptr, ptr %29, align 8
  %31 = getelementptr inbounds %"class.casadi::FixedStepIntegrator", ptr %6, i32 0, i32 5
  %32 = load i64, ptr %31, align 8
  call void @_ZN6casadi12casadi_clearIdEEvPT_x(ptr noundef %30, i64 noundef %32)
  ret void
}