; Function Attrs: mustprogress nofree norecurse nosync nounwind willreturn memory(write, argmem: readwrite, inaccessiblemem: none) uwtable
define void @_ZNK6casadi19FixedStepIntegrator6resetBEPNS_16IntegratorMemoryE(ptr nocapture noundef nonnull readonly align 8 dereferenceable(1976) %0, ptr nocapture noundef readonly %1) unnamed_addr #16 align 2 {
  %3 = getelementptr inbounds i8, ptr %1, i64 256
  %4 = load ptr, ptr %3, align 8
  %5 = getelementptr inbounds i8, ptr %0, i64 1720
  %6 = load i64, ptr %5, align 8
  %.not.i = icmp ne ptr %4, null
  %7 = icmp sgt i64 %6, 0
  %or.cond.i = and i1 %.not.i, %7
  br i1 %or.cond.i, label %.lr.ph.preheader.i, label %_ZN6casadi12casadi_clearIdEEvPT_x.exit

.lr.ph.preheader.i:                               ; preds = %2
  %8 = shl nuw i64 %6, 3
  tail call void @llvm.memset.p0.i64(ptr nonnull align 8 %4, i8 0, i64 %8, i1 false)
  br label %_ZN6casadi12casadi_clearIdEEvPT_x.exit

_ZN6casadi12casadi_clearIdEEvPT_x.exit:           ; preds = %2, %.lr.ph.preheader.i
  %9 = getelementptr inbounds i8, ptr %1, i64 160
  %10 = load ptr, ptr %9, align 8
  %11 = getelementptr inbounds i8, ptr %0, i64 1648
  %12 = load i64, ptr %11, align 8
  %.not.i7 = icmp ne ptr %10, null
  %13 = icmp sgt i64 %12, 0
  %or.cond.i8 = and i1 %.not.i7, %13
  br i1 %or.cond.i8, label %.lr.ph.preheader.i9, label %_ZN6casadi12casadi_clearIdEEvPT_x.exit10

.lr.ph.preheader.i9:                              ; preds = %_ZN6casadi12casadi_clearIdEEvPT_x.exit
  %14 = shl nuw i64 %12, 3
  tail call void @llvm.memset.p0.i64(ptr nonnull align 8 %10, i8 0, i64 %14, i1 false)
  br label %_ZN6casadi12casadi_clearIdEEvPT_x.exit10

_ZN6casadi12casadi_clearIdEEvPT_x.exit10:         ; preds = %_ZN6casadi12casadi_clearIdEEvPT_x.exit, %.lr.ph.preheader.i9
  %15 = getelementptr inbounds i8, ptr %1, i64 176
  %16 = load ptr, ptr %15, align 8
  %17 = getelementptr inbounds i8, ptr %0, i64 1664
  %18 = load i64, ptr %17, align 8
  %.not.i11 = icmp ne ptr %16, null
  %19 = icmp sgt i64 %18, 0
  %or.cond.i12 = and i1 %.not.i11, %19
  br i1 %or.cond.i12, label %.lr.ph.preheader.i13, label %_ZN6casadi12casadi_clearIdEEvPT_x.exit14

.lr.ph.preheader.i13:                             ; preds = %_ZN6casadi12casadi_clearIdEEvPT_x.exit10
  %20 = shl nuw i64 %18, 3
  tail call void @llvm.memset.p0.i64(ptr nonnull align 8 %16, i8 0, i64 %20, i1 false)
  br label %_ZN6casadi12casadi_clearIdEEvPT_x.exit14

_ZN6casadi12casadi_clearIdEEvPT_x.exit14:         ; preds = %_ZN6casadi12casadi_clearIdEEvPT_x.exit10, %.lr.ph.preheader.i13
  %21 = getelementptr inbounds i8, ptr %1, i64 264
  %22 = load ptr, ptr %21, align 8
  %23 = getelementptr inbounds i8, ptr %0, i64 1672
  %24 = load i64, ptr %23, align 8
  %.not.i15 = icmp ne ptr %22, null
  %25 = icmp sgt i64 %24, 0
  %or.cond.i16 = and i1 %.not.i15, %25
  br i1 %or.cond.i16, label %.lr.ph.preheader.i17, label %_ZN6casadi12casadi_clearIdEEvPT_x.exit18

.lr.ph.preheader.i17:                             ; preds = %_ZN6casadi12casadi_clearIdEEvPT_x.exit14
  %26 = shl nuw i64 %24, 3
  tail call void @llvm.memset.p0.i64(ptr nonnull align 8 %22, i8 0, i64 %26, i1 false)
  br label %_ZN6casadi12casadi_clearIdEEvPT_x.exit18

_ZN6casadi12casadi_clearIdEEvPT_x.exit18:         ; preds = %_ZN6casadi12casadi_clearIdEEvPT_x.exit14, %.lr.ph.preheader.i17
  %27 = getelementptr inbounds i8, ptr %1, i64 248
  %28 = load ptr, ptr %27, align 8
  %29 = getelementptr inbounds i8, ptr %0, i64 1960
  %30 = load i64, ptr %29, align 8
  %.not.i19 = icmp ne ptr %28, null
  %31 = icmp sgt i64 %30, 0
  %or.cond.i20 = and i1 %.not.i19, %31
  br i1 %or.cond.i20, label %.lr.ph.preheader.i21, label %_ZN6casadi12casadi_clearIdEEvPT_x.exit22

.lr.ph.preheader.i21:                             ; preds = %_ZN6casadi12casadi_clearIdEEvPT_x.exit18
  %32 = shl nuw i64 %30, 3
  tail call void @llvm.memset.p0.i64(ptr nonnull align 8 %28, i8 0, i64 %32, i1 false)
  br label %_ZN6casadi12casadi_clearIdEEvPT_x.exit22

_ZN6casadi12casadi_clearIdEEvPT_x.exit22:         ; preds = %_ZN6casadi12casadi_clearIdEEvPT_x.exit18, %.lr.ph.preheader.i21
  ret void
}